target datalayout = "e-m:e-p270:32:32-p271:32:32-p272:64:64-i64:64-i128:128-f80:128-n8:16:32:64-S128"
target triple = "x86_64-pc-linux-gnu"

%struct.tcg_region_state = type { %struct.QemuMutex, ptr, ptr, i64, i64, i64, i64, i64, i64 }
%struct.QemuMutex = type { %union.pthread_mutex_t, i8 }
%union.pthread_mutex_t = type { %struct.__pthread_mutex_s }
%struct.__pthread_mutex_s = type { i32, i32, i32, i32, i32, i16, i16, %struct.__pthread_internal_list }
%struct.__pthread_internal_list = type { ptr, ptr }
%struct.TranslationBlock = type { i64, i64, i32, i32, i16, i16, %struct.tb_tc, [2 x i64], [2 x i64], %struct.QemuSpin, [2 x i16], [2 x i16], [2 x i64], i64, [2 x i64], [2 x i64] }
%struct.tb_tc = type { ptr, i64 }
%struct.QemuSpin = type { i32 }
%struct.tcg_region_tree = type { %struct.QemuMutex, ptr }

@region = internal global %struct.tcg_region_state zeroinitializer, align 8
@.str = private unnamed_addr constant [21 x i8] c"../qemu/tcg/region.c\00", align 1
@.str.1 = private unnamed_addr constant [11 x i8] c"rt != NULL\00", align 1
@qemu_mutex_lock_func = external global ptr, align 8
@__func__.tcg_tb_remove = private unnamed_addr constant [14 x i8] c"tcg_tb_remove\00", align 1
@region_trees = internal global ptr null, align 8
@tree_size = internal global i64 0, align 8
@tcg_splitwx_diff = external global i64, align 8

; Function Attrs: nounwind sspstrong uwtable
define dso_local zeroext i1 @in_code_gen_buffer(ptr noundef %0) #0 {
  %2 = alloca ptr, align 8
  store ptr %0, ptr %2, align 8
  %3 = load ptr, ptr %2, align 8
  %4 = load ptr, ptr getelementptr inbounds nuw (%struct.tcg_region_state, ptr @region, i32 0, i32 1), align 8
  %5 = ptrtoint ptr %3 to i64
  %6 = ptrtoint ptr %4 to i64
  %7 = sub i64 %5, %6
  %8 = load i64, ptr getelementptr inbounds nuw (%struct.tcg_region_state, ptr @region, i32 0, i32 6), align 8
  %9 = icmp ule i64 %7, %8
  ret i1 %9
}

; Function Attrs: nounwind sspstrong uwtable
define internal ptr @tc_ptr_to_region_tree(ptr noundef %0) #0 {
  %2 = alloca ptr, align 8
  %3 = alloca ptr, align 8
  %4 = alloca i64, align 8
  %5 = alloca i32, align 4
  %6 = alloca i64, align 8
  store ptr %0, ptr %3, align 8
  call void @llvm.lifetime.start.p0(i64 8, ptr %4) #11
  store i64 0, ptr %4, align 8, !annotation !4
  %7 = load ptr, ptr %3, align 8
  %8 = call zeroext i1 @in_code_gen_buffer(ptr noundef %7)
  br i1 %8, label %18, label %9

9:                                                ; preds = %1
  %10 = load i64, ptr @tcg_splitwx_diff, align 8
  %11 = load ptr, ptr %3, align 8
  %12 = sub i64 0, %10
  %13 = getelementptr inbounds i8, ptr %11, i64 %12
  store ptr %13, ptr %3, align 8
  %14 = load ptr, ptr %3, align 8
  %15 = call zeroext i1 @in_code_gen_buffer(ptr noundef %14)
  br i1 %15, label %17, label %16

16:                                               ; preds = %9
  store ptr null, ptr %2, align 8
  store i32 1, ptr %5, align 4
  br label %49

17:                                               ; preds = %9
  br label %18

18:                                               ; preds = %17, %1
  %19 = load ptr, ptr %3, align 8
  %20 = load ptr, ptr getelementptr inbounds nuw (%struct.tcg_region_state, ptr @region, i32 0, i32 1), align 8
  %21 = icmp ult ptr %19, %20
  br i1 %21, label %22, label %23

22:                                               ; preds = %18
  store i64 0, ptr %4, align 8
  br label %43

23:                                               ; preds = %18
  call void @llvm.lifetime.start.p0(i64 8, ptr %6) #11
  %24 = load ptr, ptr %3, align 8
  %25 = load ptr, ptr getelementptr inbounds nuw (%struct.tcg_region_state, ptr @region, i32 0, i32 1), align 8
  %26 = ptrtoint ptr %24 to i64
  %27 = ptrtoint ptr %25 to i64
  %28 = sub i64 %26, %27
  store i64 %28, ptr %6, align 8
  %29 = load i64, ptr %6, align 8
  %30 = load i64, ptr getelementptr inbounds nuw (%struct.tcg_region_state, ptr @region, i32 0, i32 5), align 8
  %31 = load i64, ptr getelementptr inbounds nuw (%struct.tcg_region_state, ptr @region, i32 0, i32 3), align 8
  %32 = sub i64 %31, 1
  %33 = mul i64 %30, %32
  %34 = icmp ugt i64 %29, %33
  br i1 %34, label %35, label %38

35:                                               ; preds = %23
  %36 = load i64, ptr getelementptr inbounds nuw (%struct.tcg_region_state, ptr @region, i32 0, i32 3), align 8
  %37 = sub i64 %36, 1
  store i64 %37, ptr %4, align 8
  br label %42

38:                                               ; preds = %23
  %39 = load i64, ptr %6, align 8
  %40 = load i64, ptr getelementptr inbounds nuw (%struct.tcg_region_state, ptr @region, i32 0, i32 5), align 8
  %41 = udiv i64 %39, %40
  store i64 %41, ptr %4, align 8
  br label %42

42:                                               ; preds = %38, %35
  call void @llvm.lifetime.end.p0(i64 8, ptr %6) #11
  br label %43

43:                                               ; preds = %42, %22
  %44 = load ptr, ptr @region_trees, align 8
  %45 = load i64, ptr %4, align 8
  %46 = load i64, ptr @tree_size, align 8
  %47 = mul i64 %45, %46
  %48 = getelementptr inbounds nuw i8, ptr %44, i64 %47
  store ptr %48, ptr %2, align 8
  store i32 1, ptr %5, align 4
  br label %49

49:                                               ; preds = %43, %16
  call void @llvm.lifetime.end.p0(i64 8, ptr %4) #11
  %50 = load ptr, ptr %2, align 8
  ret ptr %50
}

; Function Attrs: nounwind sspstrong uwtable
define dso_local void @tcg_tb_remove(ptr noundef %0) #0 {
  %2 = alloca ptr, align 8
  %3 = alloca ptr, align 8
  %4 = alloca i32, align 4
  %5 = alloca i32, align 4
  %6 = alloca ptr, align 8
  %7 = alloca ptr, align 8
  %8 = alloca ptr, align 8
  store ptr %0, ptr %2, align 8
  call void @llvm.lifetime.start.p0(i64 8, ptr %3) #11
  %9 = load ptr, ptr %2, align 8
  %10 = getelementptr inbounds nuw %struct.TranslationBlock, ptr %9, i32 0, i32 6
  %11 = getelementptr inbounds nuw %struct.tb_tc, ptr %10, i32 0, i32 0
  %12 = load ptr, ptr %11, align 8
  %13 = call ptr @tc_ptr_to_region_tree(ptr noundef %12)
  store ptr %13, ptr %3, align 8
  br label %14

14:                                               ; preds = %1
  call void @llvm.lifetime.start.p0(i64 4, ptr %4) #11
  store i32 0, ptr %4, align 4, !annotation !4
  %15 = load ptr, ptr %3, align 8
  %16 = icmp ne ptr %15, null
  br i1 %16, label %17, label %18

17:                                               ; preds = %14
  store i32 1, ptr %4, align 4
  br label %19

18:                                               ; preds = %14
  store i32 0, ptr %4, align 4
  br label %19

19:                                               ; preds = %18, %17
  %20 = load i32, ptr %4, align 4
  store i32 %20, ptr %5, align 4
  call void @llvm.lifetime.end.p0(i64 4, ptr %4) #11
  %21 = load i32, ptr %5, align 4
  %22 = sext i32 %21 to i64
  %23 = call i64 @llvm.expect.i64(i64 %22, i64 1)
  %24 = icmp ne i64 %23, 0
  br i1 %24, label %25, label %26

25:                                               ; preds = %19
  br label %27

26:                                               ; preds = %19
  call void @g_assertion_message_expr(ptr noundef null, ptr noundef @.str, i32 noundef 237, ptr noundef @__func__.tcg_tb_remove, ptr noundef @.str.1) #12
  unreachable

27:                                               ; preds = %25
  br label %28

28:                                               ; preds = %27
  br label %29

29:                                               ; preds = %28
  call void @llvm.lifetime.start.p0(i64 8, ptr %6) #11
  br label %30

30:                                               ; preds = %29
  br i1 false, label %31, label %32

31:                                               ; preds = %30
  call void @qemu_build_not_reached_always() #12, !srcloc !6
  unreachable

32:                                               ; preds = %30
  %33 = load atomic i64, ptr @qemu_mutex_lock_func monotonic, align 8
  store i64 %33, ptr %8, align 8
  %34 = load ptr, ptr %8, align 8
  store ptr %34, ptr %7, align 8
  %35 = load ptr, ptr %7, align 8
  store ptr %35, ptr %6, align 8
  %36 = load ptr, ptr %6, align 8
  %37 = load ptr, ptr %3, align 8
  %38 = getelementptr inbounds nuw %struct.tcg_region_tree, ptr %37, i32 0, i32 0
  call void %36(ptr noundef %38, ptr noundef @.str, i32 noundef 238)
  call void @llvm.lifetime.end.p0(i64 8, ptr %6) #11
  %39 = load ptr, ptr %3, align 8
  %40 = getelementptr inbounds nuw %struct.tcg_region_tree, ptr %39, i32 0, i32 1
  %41 = load ptr, ptr %40, align 8
  %42 = load ptr, ptr %2, align 8
  %43 = getelementptr inbounds nuw %struct.TranslationBlock, ptr %42, i32 0, i32 6
  %44 = call i32 @q_tree_remove(ptr noundef %41, ptr noundef %43)
  %45 = load ptr, ptr %3, align 8
  %46 = getelementptr inbounds nuw %struct.tcg_region_tree, ptr %45, i32 0, i32 0
  call void @qemu_mutex_unlock_impl(ptr noundef %46, ptr noundef @.str, i32 noundef 240)
  call void @llvm.lifetime.end.p0(i64 8, ptr %3) #11
  ret void
}